target datalayout = "e-m:e-p270:32:32-p271:32:32-p272:64:64-i64:64-i128:128-f80:128-n8:16:32:64-S128"
target triple = "x86_64-pc-linux-gnu"

%struct.expert_field = type { i32, i32 }
%struct.ftp_conversation_t = type { ptr, i32, ptr, ptr, i32, ptr, i32, i8 }

@ei_ftp_pwd_response_invalid = internal global %struct.expert_field zeroinitializer, align 4

; Function Attrs: null_pointer_is_valid sspstrong uwtable
define internal void @process_pwd_success(ptr noundef %0, ptr noundef %1, i32 noundef %2, i32 noundef %3, ptr noundef %4, ptr noundef %5) #0 {
  %7 = alloca ptr, align 8
  %8 = alloca ptr, align 8
  %9 = alloca i32, align 4
  %10 = alloca i32, align 4
  %11 = alloca ptr, align 8
  %12 = alloca ptr, align 8
  %13 = alloca ptr, align 8
  %14 = alloca ptr, align 8
  %15 = alloca i8, align 1
  %16 = alloca i32, align 4
  store ptr %0, ptr %7, align 8
  store ptr %1, ptr %8, align 8
  store i32 %2, ptr %9, align 4
  store i32 %3, ptr %10, align 4
  store ptr %4, ptr %11, align 8
  store ptr %5, ptr %12, align 8
  call void @llvm.lifetime.start.p0(i64 8, ptr %13) #16
  call void @llvm.lifetime.start.p0(i64 8, ptr %14) #16
  %17 = load ptr, ptr %8, align 8
  %18 = load i32, ptr %9, align 4
  %19 = load i32, ptr %10, align 4
  %20 = call ptr @tvb_get_ptr(ptr noundef %17, i32 noundef %18, i32 noundef %19)
  store ptr %20, ptr %14, align 8
  call void @llvm.lifetime.start.p0(i64 1, ptr %15) #16
  store i8 0, ptr %15, align 1
  %21 = load i32, ptr %10, align 4
  %22 = icmp slt i32 %21, 2
  br i1 %22, label %29, label %23

23:                                               ; preds = %6
  %24 = load ptr, ptr %14, align 8
  %25 = getelementptr i8, ptr %24, i64 0
  %26 = load i8, ptr %25, align 1
  %27 = sext i8 %26 to i32
  %28 = icmp ne i32 %27, 34
  br i1 %28, label %29, label %33

29:                                               ; preds = %23, %6
  %30 = load ptr, ptr %11, align 8
  %31 = load ptr, ptr %12, align 8
  %32 = call ptr @expert_add_info(ptr noundef %30, ptr noundef %31, ptr noundef @ei_ftp_pwd_response_invalid)
  store i32 1, ptr %16, align 4
  br label %123

33:                                               ; preds = %23
  %34 = call ptr @wmem_file_scope()
  %35 = call noalias ptr @wmem_strbuf_new(ptr noundef %34, ptr noundef null)
  store ptr %35, ptr %13, align 8
  store i32 0, ptr %9, align 4
  br label %36

36:                                               ; preds = %98, %33
  %37 = load i32, ptr %9, align 4
  %38 = load i32, ptr %10, align 4
  %39 = icmp slt i32 %37, %38
  br i1 %39, label %40, label %56

40:                                               ; preds = %36
  %41 = load ptr, ptr %14, align 8
  %42 = load i32, ptr %9, align 4
  %43 = sext i32 %42 to i64
  %44 = getelementptr i8, ptr %41, i64 %43
  %45 = load i8, ptr %44, align 1
  %46 = sext i8 %45 to i32
  %47 = icmp ne i32 %46, 13
  br i1 %47, label %48, label %56

48:                                               ; preds = %40
  %49 = load ptr, ptr %14, align 8
  %50 = load i32, ptr %9, align 4
  %51 = sext i32 %50 to i64
  %52 = getelementptr i8, ptr %49, i64 %51
  %53 = load i8, ptr %52, align 1
  %54 = sext i8 %53 to i32
  %55 = icmp ne i32 %54, 10
  br label %56

56:                                               ; preds = %48, %40, %36
  %57 = phi i1 [ false, %40 ], [ false, %36 ], [ %55, %48 ]
  br i1 %57, label %58, label %101

58:                                               ; preds = %56
  %59 = load ptr, ptr %14, align 8
  %60 = load i32, ptr %9, align 4
  %61 = sext i32 %60 to i64
  %62 = getelementptr i8, ptr %59, i64 %61
  %63 = load i8, ptr %62, align 1
  %64 = sext i8 %63 to i32
  %65 = icmp eq i32 %64, 34
  br i1 %65, label %66, label %90

66:                                               ; preds = %58
  %67 = load i32, ptr %9, align 4
  %68 = add i32 %67, 1
  %69 = load i32, ptr %10, align 4
  %70 = icmp slt i32 %68, %69
  br i1 %70, label %71, label %84

71:                                               ; preds = %66
  %72 = load ptr, ptr %14, align 8
  %73 = load i32, ptr %9, align 4
  %74 = add i32 %73, 1
  %75 = sext i32 %74 to i64
  %76 = getelementptr i8, ptr %72, i64 %75
  %77 = load i8, ptr %76, align 1
  %78 = sext i8 %77 to i32
  %79 = icmp eq i32 %78, 34
  br i1 %79, label %80, label %84

80:                                               ; preds = %71
  %81 = load ptr, ptr %13, align 8
  call void @wmem_strbuf_append_c(ptr noundef %81, i8 noundef signext 34)
  %82 = load i32, ptr %9, align 4
  %83 = add i32 %82, 1
  store i32 %83, ptr %9, align 4
  br label %89

84:                                               ; preds = %71, %66
  %85 = load i8, ptr %15, align 1, !range !6, !noundef !7
  %86 = trunc i8 %85 to i1
  br i1 %86, label %87, label %88

87:                                               ; preds = %84
  br label %101

88:                                               ; preds = %84
  store i8 1, ptr %15, align 1
  br label %89

89:                                               ; preds = %88, %80
  br label %97

90:                                               ; preds = %58
  %91 = load ptr, ptr %13, align 8
  %92 = load ptr, ptr %14, align 8
  %93 = load i32, ptr %9, align 4
  %94 = sext i32 %93 to i64
  %95 = getelementptr i8, ptr %92, i64 %94
  %96 = load i8, ptr %95, align 1
  call void @wmem_strbuf_append_c(ptr noundef %91, i8 noundef signext %96)
  br label %97

97:                                               ; preds = %90, %89
  br label %98

98:                                               ; preds = %97
  %99 = load i32, ptr %9, align 4
  %100 = add i32 %99, 1
  store i32 %100, ptr %9, align 4
  br label %36, !llvm.loop !11

101:                                              ; preds = %87, %56
  %102 = load i32, ptr %9, align 4
  %103 = load i32, ptr %10, align 4
  %104 = icmp sge i32 %102, %103
  br i1 %104, label %113, label %105

105:                                              ; preds = %101
  %106 = load ptr, ptr %14, align 8
  %107 = load i32, ptr %9, align 4
  %108 = sext i32 %107 to i64
  %109 = getelementptr i8, ptr %106, i64 %108
  %110 = load i8, ptr %109, align 1
  %111 = sext i8 %110 to i32
  %112 = icmp ne i32 %111, 34
  br i1 %112, label %113, label %118

113:                                              ; preds = %105, %101
  %114 = load ptr, ptr %11, align 8
  %115 = load ptr, ptr %12, align 8
  %116 = call ptr @expert_add_info(ptr noundef %114, ptr noundef %115, ptr noundef @ei_ftp_pwd_response_invalid)
  %117 = load ptr, ptr %13, align 8
  call void @wmem_strbuf_destroy(ptr noundef %117)
  store i32 1, ptr %16, align 4
  br label %123

118:                                              ; preds = %105
  %119 = load ptr, ptr %13, align 8
  call void @wmem_strbuf_utf8_make_valid(ptr noundef %119)
  %120 = load ptr, ptr %13, align 8
  %121 = load ptr, ptr %7, align 8
  %122 = getelementptr inbounds nuw %struct.ftp_conversation_t, ptr %121, i32 0, i32 2
  store ptr %120, ptr %122, align 8
  store i32 0, ptr %16, align 4
  br label %123

123:                                              ; preds = %118, %113, %29
  call void @llvm.lifetime.end.p0(i64 1, ptr %15) #16
  call void @llvm.lifetime.end.p0(i64 8, ptr %14) #16
  call void @llvm.lifetime.end.p0(i64 8, ptr %13) #16
  %124 = load i32, ptr %16, align 4
  switch i32 %124, label %126 [
    i32 0, label %125
    i32 1, label %125
  ]

125:                                              ; preds = %123, %123
  ret void

126:                                              ; preds = %123
  unreachable
}