; Function Attrs: null_pointer_is_valid sspstrong uwtable
define internal fastcc void @process_pwd_success(ptr noundef nonnull writeonly captures(none) %0, ptr noundef %1, i32 noundef range(i32 0, 2147483644) %2, ptr noundef %3, ptr noundef %4) unnamed_addr #0 {
  %6 = tail call ptr @tvb_get_ptr(ptr noundef %1, i32 noundef 4, i32 noundef %2)
  %7 = icmp samesign ult i32 %2, 2
  br i1 %7, label %10, label %8

8:                                                ; preds = %5
  %9 = load i8, ptr %6, align 1
  %.not = icmp eq i8 %9, 34
  br i1 %.not, label %12, label %10

10:                                               ; preds = %8, %5
  %11 = tail call ptr @expert_add_info(ptr noundef %3, ptr noundef %4, ptr noundef nonnull @ei_ftp_pwd_response_invalid)
  br label %34

12:                                               ; preds = %8
  %13 = tail call ptr @wmem_file_scope()
  %14 = tail call noalias ptr @wmem_strbuf_new(ptr noundef %13, ptr noundef null)
  br label %15

15:                                               ; preds = %12, %28
  %.046 = phi i1 [ false, %12 ], [ %.1, %28 ]
  %.03545 = phi i32 [ 0, %12 ], [ %29, %28 ]
  %16 = sext i32 %.03545 to i64
  %17 = getelementptr i8, ptr %6, i64 %16
  %18 = load i8, ptr %17, align 1
  switch i8 %18, label %.sink.split [
    i8 13, label %.critedge
    i8 10, label %.critedge
    i8 34, label %19
  ]

19:                                               ; preds = %15
  %20 = add nsw i32 %.03545, 1
  %21 = icmp slt i32 %20, %2
  br i1 %21, label %22, label %27

22:                                               ; preds = %19
  %23 = sext i32 %20 to i64
  %24 = getelementptr i8, ptr %6, i64 %23
  %25 = load i8, ptr %24, align 1
  %26 = icmp eq i8 %25, 34
  br i1 %26, label %.sink.split, label %27

27:                                               ; preds = %22, %19
  br i1 %.046, label %32, label %28

.sink.split:                                      ; preds = %15, %22
  %.sink = phi i8 [ 34, %22 ], [ %18, %15 ]
  %.136.ph = phi i32 [ %20, %22 ], [ %.03545, %15 ]
  tail call void @wmem_strbuf_append_c(ptr noundef %14, i8 noundef signext %.sink)
  br label %28

28:                                               ; preds = %.sink.split, %27
  %.136 = phi i32 [ %.03545, %27 ], [ %.136.ph, %.sink.split ]
  %.1 = phi i1 [ true, %27 ], [ %.046, %.sink.split ]
  %29 = add nsw i32 %.136, 1
  %30 = icmp slt i32 %29, %2
  br i1 %30, label %15, label %.critedge, !llvm.loop !17

.critedge:                                        ; preds = %28, %15, %15
  %31 = tail call ptr @expert_add_info(ptr noundef %3, ptr noundef %4, ptr noundef nonnull @ei_ftp_pwd_response_invalid)
  tail call void @wmem_strbuf_destroy(ptr noundef %14)
  br label %34

32:                                               ; preds = %27
  tail call void @wmem_strbuf_utf8_make_valid(ptr noundef %14)
  %33 = getelementptr inbounds nuw i8, ptr %0, i64 16
  store ptr %14, ptr %33, align 8
  br label %34

34:                                               ; preds = %32, %.critedge, %10
  ret void
}